; ModuleID = '43/1344.c'
source_filename = "43/1344.c"
target datalayout = "e-m:e-p270:32:32-p271:32:32-p272:64:64-i64:64-f80:128-n8:16:32:64-S128"
target triple = "x86_64-pc-linux-gnu"

@.str = private unnamed_addr constant [3 x i8] c"%d\00", align 1
@.str.1 = private unnamed_addr constant [7 x i8] c"%d %d\0A\00", align 1

; Function Attrs: noinline nounwind uwtable
define dso_local i32 @main() #0 {
  %1 = alloca i32, align 4
  %2 = alloca i32, align 4
  %3 = alloca i32, align 4
  %4 = alloca i32, align 4
  %5 = alloca i32, align 4
  store i32 0, i32* %1, align 4
  %6 = call i32 (i8*, ...) @__isoc99_scanf(i8* getelementptr inbounds ([3 x i8], [3 x i8]* @.str, i64 0, i64 0), i32* %2)
  store i32 3, i32* %3, align 4
  br label %7

7:                                                ; preds = %64, %0
  %8 = load i32, i32* %3, align 4
  %9 = load i32, i32* %2, align 4
  %10 = sdiv i32 %9, 2
  %11 = icmp sle i32 %8, %10
  br i1 %11, label %12, label %67

12:                                               ; preds = %7
  store i32 2, i32* %4, align 4
  br label %13

13:                                               ; preds = %24, %12
  %14 = load i32, i32* %4, align 4
  %15 = load i32, i32* %3, align 4
  %16 = icmp slt i32 %14, %15
  br i1 %16, label %17, label %27

17:                                               ; preds = %13
  %18 = load i32, i32* %3, align 4
  %19 = load i32, i32* %4, align 4
  %20 = srem i32 %18, %19
  %21 = icmp eq i32 %20, 0
  br i1 %21, label %22, label %23

22:                                               ; preds = %17
  br label %27

23:                                               ; preds = %17
  br label %24

24:                                               ; preds = %23
  %25 = load i32, i32* %4, align 4
  %26 = add nsw i32 %25, 1
  store i32 %26, i32* %4, align 4
  br label %13

27:                                               ; preds = %22, %13
  %28 = load i32, i32* %4, align 4
  %29 = load i32, i32* %3, align 4
  %30 = icmp slt i32 %28, %29
  br i1 %30, label %31, label %32

31:                                               ; preds = %27
  br label %64

32:                                               ; preds = %27
  store i32 2, i32* %5, align 4
  br label %33

33:                                               ; preds = %48, %32
  %34 = load i32, i32* %5, align 4
  %35 = load i32, i32* %2, align 4
  %36 = load i32, i32* %3, align 4
  %37 = sub nsw i32 %35, %36
  %38 = icmp slt i32 %34, %37
  br i1 %38, label %39, label %51

39:                                               ; preds = %33
  %40 = load i32, i32* %2, align 4
  %41 = load i32, i32* %3, align 4
  %42 = sub nsw i32 %40, %41
  %43 = load i32, i32* %5, align 4
  %44 = srem i32 %42, %43
  %45 = icmp eq i32 %44, 0
  br i1 %45, label %46, label %47

46:                                               ; preds = %39
  br label %51

47:                                               ; preds = %39
  br label %48

48:                                               ; preds = %47
  %49 = load i32, i32* %5, align 4
  %50 = add nsw i32 %49, 1
  store i32 %50, i32* %5, align 4
  br label %33

51:                                               ; preds = %46, %33
  %52 = load i32, i32* %5, align 4
  %53 = load i32, i32* %2, align 4
  %54 = load i32, i32* %3, align 4
  %55 = sub nsw i32 %53, %54
  %56 = icmp slt i32 %52, %55
  br i1 %56, label %57, label %58

57:                                               ; preds = %51
  br label %64

58:                                               ; preds = %51
  %59 = load i32, i32* %3, align 4
  %60 = load i32, i32* %2, align 4
  %61 = load i32, i32* %3, align 4
  %62 = sub nsw i32 %60, %61
  %63 = call i32 (i8*, ...) @printf(i8* getelementptr inbounds ([7 x i8], [7 x i8]* @.str.1, i64 0, i64 0), i32 %59, i32 %62)
  br label %64

64:                                               ; preds = %58, %57, %31
  %65 = load i32, i32* %3, align 4
  %66 = add nsw i32 %65, 1
  store i32 %66, i32* %3, align 4
  br label %7

67:                                               ; preds = %7
  ret i32 0
}

declare dso_local i32 @__isoc99_scanf(i8*, ...) #1

declare dso_local i32 @printf(i8*, ...) #1


!llvm.module.flags = !{!0}
!llvm.ident = !{!1}

!0 = !{i32 1, !"wchar_size", i32 4}
!1 = !{!"clang version 10.0.0-4ubuntu1 "}
